target datalayout = "e-m:e-p270:32:32-p271:32:32-p272:64:64-i64:64-i128:128-f80:128-n8:16:32:64-S128"
target triple = "x86_64-pc-linux-gnu"

%struct.H5G_loc_t = type { ptr, ptr }
%struct.H5VL_loc_params_t = type { i32, i32, %union.anon }
%union.anon = type { %struct.H5VL_loc_by_idx }
%struct.H5VL_loc_by_idx = type { ptr, i32, i32, i64, i64 }
%struct.H5VL_group_get_args_t = type { i32, %union.anon.1 }
%union.anon.1 = type { %struct.H5VL_group_get_info_args_t }
%struct.H5VL_group_get_info_args_t = type { %struct.H5VL_loc_params_t, ptr }
%struct.anon.2 = type { i64 }
%struct.H5VL_loc_by_name = type { ptr, i64 }

@.str = private unnamed_addr constant [110 x i8] c"generated/home/dtcxzyw/WorkSpace/Projects/compilers/llvm-opt-benchmark/bench/hdf5/hdf5/src/H5VLnative_group.c\00", align 1
@H5E_ARGS_g = external global i64, align 8
@H5E_BADTYPE_g = external global i64, align 8
@.str.1 = private unnamed_addr constant [26 x i8] c"not a file or file object\00", align 1
@H5E_SYM_g = external global i64, align 8
@H5E_CANTGET_g = external global i64, align 8
@__func__.H5VL__native_group_get = private unnamed_addr constant [23 x i8] c"H5VL__native_group_get\00", align 1
@.str.6 = private unnamed_addr constant [43 x i8] c"can't get creation property list for group\00", align 1
@.str.7 = private unnamed_addr constant [26 x i8] c"can't retrieve group info\00", align 1
@H5E_VOL_g = external global i64, align 8
@H5E_UNSUPPORTED_g = external global i64, align 8
@.str.8 = private unnamed_addr constant [28 x i8] c"unknown get info parameters\00", align 1
@.str.9 = private unnamed_addr constant [46 x i8] c"can't get this type of information from group\00", align 1

; Function Attrs: nounwind uwtable
define i32 @H5VL__native_group_get(ptr noundef %0, ptr noundef %1, i64 noundef %2, ptr noundef %3) #0 {
  %5 = alloca ptr, align 8
  %6 = alloca ptr, align 8
  %7 = alloca i64, align 8
  %8 = alloca ptr, align 8
  %9 = alloca i32, align 4
  %10 = alloca i8, align 1
  %11 = alloca ptr, align 8
  %12 = alloca %struct.H5G_loc_t, align 8
  store ptr %0, ptr %5, align 8
  store ptr %1, ptr %6, align 8
  store i64 %2, ptr %7, align 8
  store ptr %3, ptr %8, align 8
  store i32 0, ptr %9, align 4
  store i8 0, ptr %10, align 1
  %13 = load ptr, ptr %6, align 8
  %14 = getelementptr inbounds %struct.H5VL_group_get_args_t, ptr %13, i32 0, i32 0
  %15 = load i32, ptr %14, align 8
  switch i32 %15, label %193 [
    i32 0, label %16
    i32 1, label %39
  ]

16:                                               ; preds = %4
  %17 = load ptr, ptr %5, align 8
  %18 = call i64 @H5G_get_create_plist(ptr noundef %17)
  %19 = load ptr, ptr %6, align 8
  %20 = getelementptr inbounds %struct.H5VL_group_get_args_t, ptr %19, i32 0, i32 1
  %21 = getelementptr inbounds %struct.anon.2, ptr %20, i32 0, i32 0
  store i64 %18, ptr %21, align 8
  %22 = icmp slt i64 %18, 0
  br i1 %22, label %23, label %38

23:                                               ; preds = %16
  br label %24

24:                                               ; preds = %23
  br label %25

25:                                               ; preds = %24
  br label %26

26:                                               ; preds = %25
  %27 = load i64, ptr @H5E_SYM_g, align 8
  %28 = load i64, ptr @H5E_CANTGET_g, align 8
  %29 = call i32 (ptr, ptr, i32, i64, i64, ptr, ...) @H5E_printf_stack(ptr noundef @.str, ptr noundef @__func__.H5VL__native_group_get, i32 noundef 182, i64 noundef %27, i64 noundef %28, ptr noundef @.str.6)
  br label %30

30:                                               ; preds = %26
  store i8 1, ptr %10, align 1
  %31 = load i8, ptr %10, align 1
  %32 = trunc i8 %31 to i1
  %33 = zext i1 %32 to i8
  store i8 %33, ptr %10, align 1
  br label %34

34:                                               ; preds = %30
  br label %35

35:                                               ; preds = %34
  store i32 -1, ptr %9, align 4
  br label %209

36:                                               ; No predecessors!
  br label %37

37:                                               ; preds = %36
  br label %38

38:                                               ; preds = %37, %16
  br label %208

39:                                               ; preds = %4
  %40 = load ptr, ptr %6, align 8
  %41 = getelementptr inbounds %struct.H5VL_group_get_args_t, ptr %40, i32 0, i32 1
  store ptr %41, ptr %11, align 8
  %42 = load ptr, ptr %5, align 8
  %43 = load ptr, ptr %11, align 8
  %44 = getelementptr inbounds %struct.H5VL_group_get_info_args_t, ptr %43, i32 0, i32 0
  %45 = getelementptr inbounds %struct.H5VL_loc_params_t, ptr %44, i32 0, i32 0
  %46 = load i32, ptr %45, align 8
  %47 = call i32 @H5G_loc_real(ptr noundef %42, i32 noundef %46, ptr noundef %12)
  %48 = icmp slt i32 %47, 0
  br i1 %48, label %49, label %64

49:                                               ; preds = %39
  br label %50

50:                                               ; preds = %49
  br label %51

51:                                               ; preds = %50
  br label %52

52:                                               ; preds = %51
  %53 = load i64, ptr @H5E_ARGS_g, align 8
  %54 = load i64, ptr @H5E_BADTYPE_g, align 8
  %55 = call i32 (ptr, ptr, i32, i64, i64, ptr, ...) @H5E_printf_stack(ptr noundef @.str, ptr noundef @__func__.H5VL__native_group_get, i32 noundef 193, i64 noundef %53, i64 noundef %54, ptr noundef @.str.1)
  br label %56

56:                                               ; preds = %52
  store i8 1, ptr %10, align 1
  %57 = load i8, ptr %10, align 1
  %58 = trunc i8 %57 to i1
  %59 = zext i1 %58 to i8
  store i8 %59, ptr %10, align 1
  br label %60

60:                                               ; preds = %56
  br label %61

61:                                               ; preds = %60
  store i32 -1, ptr %9, align 4
  br label %209

62:                                               ; No predecessors!
  br label %63

63:                                               ; preds = %62
  br label %64

64:                                               ; preds = %63, %39
  %65 = load ptr, ptr %11, align 8
  %66 = getelementptr inbounds %struct.H5VL_group_get_info_args_t, ptr %65, i32 0, i32 0
  %67 = getelementptr inbounds %struct.H5VL_loc_params_t, ptr %66, i32 0, i32 1
  %68 = load i32, ptr %67, align 4
  %69 = icmp eq i32 %68, 0
  br i1 %69, label %70, label %94

70:                                               ; preds = %64
  %71 = getelementptr inbounds %struct.H5G_loc_t, ptr %12, i32 0, i32 0
  %72 = load ptr, ptr %71, align 8
  %73 = load ptr, ptr %11, align 8
  %74 = getelementptr inbounds %struct.H5VL_group_get_info_args_t, ptr %73, i32 0, i32 1
  %75 = load ptr, ptr %74, align 8
  %76 = call i32 @H5G__obj_info(ptr noundef %72, ptr noundef %75)
  %77 = icmp slt i32 %76, 0
  br i1 %77, label %78, label %93

78:                                               ; preds = %70
  br label %79

79:                                               ; preds = %78
  br label %80

80:                                               ; preds = %79
  br label %81

81:                                               ; preds = %80
  %82 = load i64, ptr @H5E_SYM_g, align 8
  %83 = load i64, ptr @H5E_CANTGET_g, align 8
  %84 = call i32 (ptr, ptr, i32, i64, i64, ptr, ...) @H5E_printf_stack(ptr noundef @.str, ptr noundef @__func__.H5VL__native_group_get, i32 noundef 200, i64 noundef %82, i64 noundef %83, ptr noundef @.str.7)
  br label %85

85:                                               ; preds = %81
  store i8 1, ptr %10, align 1
  %86 = load i8, ptr %10, align 1
  %87 = trunc i8 %86 to i1
  %88 = zext i1 %87 to i8
  store i8 %88, ptr %10, align 1
  br label %89

89:                                               ; preds = %85
  br label %90

90:                                               ; preds = %89
  store i32 -1, ptr %9, align 4
  br label %209

91:                                               ; No predecessors!
  br label %92

92:                                               ; preds = %91
  br label %93

93:                                               ; preds = %92, %70
  br label %192

94:                                               ; preds = %64
  %95 = load ptr, ptr %11, align 8
  %96 = getelementptr inbounds %struct.H5VL_group_get_info_args_t, ptr %95, i32 0, i32 0
  %97 = getelementptr inbounds %struct.H5VL_loc_params_t, ptr %96, i32 0, i32 1
  %98 = load i32, ptr %97, align 4
  %99 = icmp eq i32 %98, 1
  br i1 %99, label %100, label %127

100:                                              ; preds = %94
  %101 = load ptr, ptr %11, align 8
  %102 = getelementptr inbounds %struct.H5VL_group_get_info_args_t, ptr %101, i32 0, i32 0
  %103 = getelementptr inbounds %struct.H5VL_loc_params_t, ptr %102, i32 0, i32 2
  %104 = getelementptr inbounds %struct.H5VL_loc_by_name, ptr %103, i32 0, i32 0
  %105 = load ptr, ptr %104, align 8
  %106 = load ptr, ptr %11, align 8
  %107 = getelementptr inbounds %struct.H5VL_group_get_info_args_t, ptr %106, i32 0, i32 1
  %108 = load ptr, ptr %107, align 8
  %109 = call i32 @H5G__get_info_by_name(ptr noundef %12, ptr noundef %105, ptr noundef %108)
  %110 = icmp slt i32 %109, 0
  br i1 %110, label %111, label %126

111:                                              ; preds = %100
  br label %112

112:                                              ; preds = %111
  br label %113

113:                                              ; preds = %112
  br label %114

114:                                              ; preds = %113
  %115 = load i64, ptr @H5E_SYM_g, align 8
  %116 = load i64, ptr @H5E_CANTGET_g, align 8
  %117 = call i32 (ptr, ptr, i32, i64, i64, ptr, ...) @H5E_printf_stack(ptr noundef @.str, ptr noundef @__func__.H5VL__native_group_get, i32 noundef 208, i64 noundef %115, i64 noundef %116, ptr noundef @.str.7)
  br label %118

118:                                              ; preds = %114
  store i8 1, ptr %10, align 1
  %119 = load i8, ptr %10, align 1
  %120 = trunc i8 %119 to i1
  %121 = zext i1 %120 to i8
  store i8 %121, ptr %10, align 1
  br label %122

122:                                              ; preds = %118
  br label %123

123:                                              ; preds = %122
  store i32 -1, ptr %9, align 4
  br label %209

124:                                              ; No predecessors!
  br label %125

125:                                              ; preds = %124
  br label %126

126:                                              ; preds = %125, %100
  br label %191

127:                                              ; preds = %94
  %128 = load ptr, ptr %11, align 8
  %129 = getelementptr inbounds %struct.H5VL_group_get_info_args_t, ptr %128, i32 0, i32 0
  %130 = getelementptr inbounds %struct.H5VL_loc_params_t, ptr %129, i32 0, i32 1
  %131 = load i32, ptr %130, align 4
  %132 = icmp eq i32 %131, 2
  br i1 %132, label %133, label %175

133:                                              ; preds = %127
  %134 = load ptr, ptr %11, align 8
  %135 = getelementptr inbounds %struct.H5VL_group_get_info_args_t, ptr %134, i32 0, i32 0
  %136 = getelementptr inbounds %struct.H5VL_loc_params_t, ptr %135, i32 0, i32 2
  %137 = getelementptr inbounds %struct.H5VL_loc_by_idx, ptr %136, i32 0, i32 0
  %138 = load ptr, ptr %137, align 8
  %139 = load ptr, ptr %11, align 8
  %140 = getelementptr inbounds %struct.H5VL_group_get_info_args_t, ptr %139, i32 0, i32 0
  %141 = getelementptr inbounds %struct.H5VL_loc_params_t, ptr %140, i32 0, i32 2
  %142 = getelementptr inbounds %struct.H5VL_loc_by_idx, ptr %141, i32 0, i32 1
  %143 = load i32, ptr %142, align 8
  %144 = load ptr, ptr %11, align 8
  %145 = getelementptr inbounds %struct.H5VL_group_get_info_args_t, ptr %144, i32 0, i32 0
  %146 = getelementptr inbounds %struct.H5VL_loc_params_t, ptr %145, i32 0, i32 2
  %147 = getelementptr inbounds %struct.H5VL_loc_by_idx, ptr %146, i32 0, i32 2
  %148 = load i32, ptr %147, align 4
  %149 = load ptr, ptr %11, align 8
  %150 = getelementptr inbounds %struct.H5VL_group_get_info_args_t, ptr %149, i32 0, i32 0
  %151 = getelementptr inbounds %struct.H5VL_loc_params_t, ptr %150, i32 0, i32 2
  %152 = getelementptr inbounds %struct.H5VL_loc_by_idx, ptr %151, i32 0, i32 3
  %153 = load i64, ptr %152, align 8
  %154 = load ptr, ptr %11, align 8
  %155 = getelementptr inbounds %struct.H5VL_group_get_info_args_t, ptr %154, i32 0, i32 1
  %156 = load ptr, ptr %155, align 8
  %157 = call i32 @H5G__get_info_by_idx(ptr noundef %12, ptr noundef %138, i32 noundef %143, i32 noundef %148, i64 noundef %153, ptr noundef %156)
  %158 = icmp slt i32 %157, 0
  br i1 %158, label %159, label %174

159:                                              ; preds = %133
  br label %160

160:                                              ; preds = %159
  br label %161

161:                                              ; preds = %160
  br label %162

162:                                              ; preds = %161
  %163 = load i64, ptr @H5E_SYM_g, align 8
  %164 = load i64, ptr @H5E_CANTGET_g, align 8
  %165 = call i32 (ptr, ptr, i32, i64, i64, ptr, ...) @H5E_printf_stack(ptr noundef @.str, ptr noundef @__func__.H5VL__native_group_get, i32 noundef 219, i64 noundef %163, i64 noundef %164, ptr noundef @.str.7)
  br label %166

166:                                              ; preds = %162
  store i8 1, ptr %10, align 1
  %167 = load i8, ptr %10, align 1
  %168 = trunc i8 %167 to i1
  %169 = zext i1 %168 to i8
  store i8 %169, ptr %10, align 1
  br label %170

170:                                              ; preds = %166
  br label %171

171:                                              ; preds = %170
  store i32 -1, ptr %9, align 4
  br label %209

172:                                              ; No predecessors!
  br label %173

173:                                              ; preds = %172
  br label %174

174:                                              ; preds = %173, %133
  br label %190

175:                                              ; preds = %127
  br label %176

176:                                              ; preds = %175
  br label %177

177:                                              ; preds = %176
  br label %178

178:                                              ; preds = %177
  %179 = load i64, ptr @H5E_VOL_g, align 8
  %180 = load i64, ptr @H5E_UNSUPPORTED_g, align 8
  %181 = call i32 (ptr, ptr, i32, i64, i64, ptr, ...) @H5E_printf_stack(ptr noundef @.str, ptr noundef @__func__.H5VL__native_group_get, i32 noundef 222, i64 noundef %179, i64 noundef %180, ptr noundef @.str.8)
  br label %182

182:                                              ; preds = %178
  store i8 1, ptr %10, align 1
  %183 = load i8, ptr %10, align 1
  %184 = trunc i8 %183 to i1
  %185 = zext i1 %184 to i8
  store i8 %185, ptr %10, align 1
  br label %186

186:                                              ; preds = %182
  br label %187

187:                                              ; preds = %186
  store i32 -1, ptr %9, align 4
  br label %209

188:                                              ; No predecessors!
  br label %189

189:                                              ; preds = %188
  br label %190

190:                                              ; preds = %189, %174
  br label %191

191:                                              ; preds = %190, %126
  br label %192

192:                                              ; preds = %191, %93
  br label %208

193:                                              ; preds = %4
  br label %194

194:                                              ; preds = %193
  br label %195

195:                                              ; preds = %194
  br label %196

196:                                              ; preds = %195
  %197 = load i64, ptr @H5E_VOL_g, align 8
  %198 = load i64, ptr @H5E_CANTGET_g, align 8
  %199 = call i32 (ptr, ptr, i32, i64, i64, ptr, ...) @H5E_printf_stack(ptr noundef @.str, ptr noundef @__func__.H5VL__native_group_get, i32 noundef 227, i64 noundef %197, i64 noundef %198, ptr noundef @.str.9)
  br label %200

200:                                              ; preds = %196
  store i8 1, ptr %10, align 1
  %201 = load i8, ptr %10, align 1
  %202 = trunc i8 %201 to i1
  %203 = zext i1 %202 to i8
  store i8 %203, ptr %10, align 1
  br label %204

204:                                              ; preds = %200
  br label %205

205:                                              ; preds = %204
  store i32 -1, ptr %9, align 4
  br label %209

206:                                              ; No predecessors!
  br label %207

207:                                              ; preds = %206
  br label %208

208:                                              ; preds = %207, %192, %38
  br label %209

209:                                              ; preds = %208, %205, %187, %171, %123, %90, %61, %35
  %210 = load i32, ptr %9, align 4
  ret i32 %210
}