; Function Attrs: nounwind uwtable
define range(i32 -1, 1) i32 @H5VL__native_group_get(ptr noundef %0, ptr nocapture noundef %1, i64 noundef %2, ptr nocapture noundef readnone %3) local_unnamed_addr #0 {
  %5 = alloca %struct.H5G_loc_t, align 8
  %6 = load i32, ptr %1, align 8
  switch i32 %6, label %69 [
    i32 0, label %7
    i32 1, label %15
  ]

7:                                                ; preds = %4
  %8 = tail call i64 @H5G_get_create_plist(ptr noundef %0) #3
  %9 = getelementptr inbounds i8, ptr %1, i64 8
  store i64 %8, ptr %9, align 8
  %10 = icmp slt i64 %8, 0
  br i1 %10, label %11, label %73

11:                                               ; preds = %7
  %12 = load i64, ptr @H5E_SYM_g, align 8
  %13 = load i64, ptr @H5E_CANTGET_g, align 8
  %14 = tail call i32 (ptr, ptr, i32, i64, i64, ptr, ...) @H5E_printf_stack(ptr noundef nonnull @.str, ptr noundef nonnull @__func__.H5VL__native_group_get, i32 noundef 182, i64 noundef %12, i64 noundef %13, ptr noundef nonnull @.str.6) #3
  br label %73

15:                                               ; preds = %4
  %16 = getelementptr inbounds i8, ptr %1, i64 8
  %17 = load i32, ptr %16, align 8
  %18 = call i32 @H5G_loc_real(ptr noundef %0, i32 noundef %17, ptr noundef nonnull %5) #3
  %19 = icmp slt i32 %18, 0
  br i1 %19, label %20, label %24

20:                                               ; preds = %15
  %21 = load i64, ptr @H5E_ARGS_g, align 8
  %22 = load i64, ptr @H5E_BADTYPE_g, align 8
  %23 = call i32 (ptr, ptr, i32, i64, i64, ptr, ...) @H5E_printf_stack(ptr noundef nonnull @.str, ptr noundef nonnull @__func__.H5VL__native_group_get, i32 noundef 193, i64 noundef %21, i64 noundef %22, ptr noundef nonnull @.str.1) #3
  br label %73

24:                                               ; preds = %15
  %25 = getelementptr inbounds i8, ptr %1, i64 12
  %26 = load i32, ptr %25, align 4
  switch i32 %26, label %65 [
    i32 0, label %27
    i32 1, label %37
    i32 2, label %48
  ]

27:                                               ; preds = %24
  %28 = load ptr, ptr %5, align 8
  %29 = getelementptr inbounds i8, ptr %1, i64 48
  %30 = load ptr, ptr %29, align 8
  %31 = call i32 @H5G__obj_info(ptr noundef %28, ptr noundef %30) #3
  %32 = icmp slt i32 %31, 0
  br i1 %32, label %33, label %73

33:                                               ; preds = %27
  %34 = load i64, ptr @H5E_SYM_g, align 8
  %35 = load i64, ptr @H5E_CANTGET_g, align 8
  %36 = call i32 (ptr, ptr, i32, i64, i64, ptr, ...) @H5E_printf_stack(ptr noundef nonnull @.str, ptr noundef nonnull @__func__.H5VL__native_group_get, i32 noundef 200, i64 noundef %34, i64 noundef %35, ptr noundef nonnull @.str.7) #3
  br label %73

37:                                               ; preds = %24
  %38 = getelementptr inbounds i8, ptr %1, i64 16
  %39 = load ptr, ptr %38, align 8
  %40 = getelementptr inbounds i8, ptr %1, i64 48
  %41 = load ptr, ptr %40, align 8
  %42 = call i32 @H5G__get_info_by_name(ptr noundef nonnull %5, ptr noundef %39, ptr noundef %41) #3
  %43 = icmp slt i32 %42, 0
  br i1 %43, label %44, label %73

44:                                               ; preds = %37
  %45 = load i64, ptr @H5E_SYM_g, align 8
  %46 = load i64, ptr @H5E_CANTGET_g, align 8
  %47 = call i32 (ptr, ptr, i32, i64, i64, ptr, ...) @H5E_printf_stack(ptr noundef nonnull @.str, ptr noundef nonnull @__func__.H5VL__native_group_get, i32 noundef 208, i64 noundef %45, i64 noundef %46, ptr noundef nonnull @.str.7) #3
  br label %73

48:                                               ; preds = %24
  %49 = getelementptr inbounds i8, ptr %1, i64 16
  %50 = load ptr, ptr %49, align 8
  %51 = getelementptr inbounds i8, ptr %1, i64 24
  %52 = load i32, ptr %51, align 8
  %53 = getelementptr inbounds i8, ptr %1, i64 28
  %54 = load i32, ptr %53, align 4
  %55 = getelementptr inbounds i8, ptr %1, i64 32
  %56 = load i64, ptr %55, align 8
  %57 = getelementptr inbounds i8, ptr %1, i64 48
  %58 = load ptr, ptr %57, align 8
  %59 = call i32 @H5G__get_info_by_idx(ptr noundef nonnull %5, ptr noundef %50, i32 noundef %52, i32 noundef %54, i64 noundef %56, ptr noundef %58) #3
  %60 = icmp slt i32 %59, 0
  br i1 %60, label %61, label %73

61:                                               ; preds = %48
  %62 = load i64, ptr @H5E_SYM_g, align 8
  %63 = load i64, ptr @H5E_CANTGET_g, align 8
  %64 = call i32 (ptr, ptr, i32, i64, i64, ptr, ...) @H5E_printf_stack(ptr noundef nonnull @.str, ptr noundef nonnull @__func__.H5VL__native_group_get, i32 noundef 219, i64 noundef %62, i64 noundef %63, ptr noundef nonnull @.str.7) #3
  br label %73

65:                                               ; preds = %24
  %66 = load i64, ptr @H5E_VOL_g, align 8
  %67 = load i64, ptr @H5E_UNSUPPORTED_g, align 8
  %68 = call i32 (ptr, ptr, i32, i64, i64, ptr, ...) @H5E_printf_stack(ptr noundef nonnull @.str, ptr noundef nonnull @__func__.H5VL__native_group_get, i32 noundef 222, i64 noundef %66, i64 noundef %67, ptr noundef nonnull @.str.8) #3
  br label %73

69:                                               ; preds = %4
  %70 = load i64, ptr @H5E_VOL_g, align 8
  %71 = load i64, ptr @H5E_CANTGET_g, align 8
  %72 = tail call i32 (ptr, ptr, i32, i64, i64, ptr, ...) @H5E_printf_stack(ptr noundef nonnull @.str, ptr noundef nonnull @__func__.H5VL__native_group_get, i32 noundef 227, i64 noundef %70, i64 noundef %71, ptr noundef nonnull @.str.9) #3
  br label %73

73:                                               ; preds = %7, %37, %48, %27, %69, %65, %61, %44, %33, %20, %11
  %.0 = phi i32 [ -1, %69 ], [ -1, %20 ], [ -1, %33 ], [ 0, %27 ], [ -1, %44 ], [ 0, %37 ], [ -1, %61 ], [ 0, %48 ], [ -1, %65 ], [ -1, %11 ], [ 0, %7 ]
  ret i32 %.0
}